target datalayout = "e-m:e-p270:32:32-p271:32:32-p272:64:64-i64:64-f80:128-n8:16:32:64-S128"
target triple = "x86_64-pc-linux-gnu"

@.str = private unnamed_addr constant [3 x i8] c"%d\00", align 1
@.str.1 = private unnamed_addr constant [16 x i8] c"%s%d%d %c %c %d\00", align 1
@.str.2 = private unnamed_addr constant [9 x i8] c"%s\0A%d\0A%d\00", align 1

; Function Attrs: noinline nounwind uwtable
define dso_local i32 @main() #0 {
  %1 = alloca i32, align 4
  %2 = alloca i32, align 4
  %3 = alloca i32, align 4
  %4 = alloca [200 x i32], align 16
  %5 = alloca [200 x i32], align 16
  %6 = alloca [200 x i32], align 16
  %7 = alloca [200 x i32], align 16
  %8 = alloca i32, align 4
  %9 = alloca i32, align 4
  %10 = alloca i32, align 4
  %11 = alloca [200 x [40 x i8]], align 16
  %12 = alloca [200 x i8], align 16
  %13 = alloca [200 x i8], align 16
  store i32 0, i32* %1, align 4
  store i32 0, i32* %8, align 4
  %14 = call i32 (i8*, ...) @__isoc99_scanf(i8* getelementptr inbounds ([3 x i8], [3 x i8]* @.str, i64 0, i64 0), i32* %2)
  store i32 0, i32* %3, align 4
  br label %15

15:                                               ; preds = %40, %0
  %16 = load i32, i32* %3, align 4
  %17 = load i32, i32* %2, align 4
  %18 = icmp slt i32 %16, %17
  br i1 %18, label %19, label %43

19:                                               ; preds = %15
  %20 = load i32, i32* %3, align 4
  %21 = sext i32 %20 to i64
  %22 = getelementptr inbounds [200 x [40 x i8]], [200 x [40 x i8]]* %11, i64 0, i64 %21
  %23 = getelementptr inbounds [40 x i8], [40 x i8]* %22, i64 0, i64 0
  %24 = load i32, i32* %3, align 4
  %25 = sext i32 %24 to i64
  %26 = getelementptr inbounds [200 x i32], [200 x i32]* %4, i64 0, i64 %25
  %27 = load i32, i32* %3, align 4
  %28 = sext i32 %27 to i64
  %29 = getelementptr inbounds [200 x i32], [200 x i32]* %5, i64 0, i64 %28
  %30 = load i32, i32* %3, align 4
  %31 = sext i32 %30 to i64
  %32 = getelementptr inbounds [200 x i8], [200 x i8]* %12, i64 0, i64 %31
  %33 = load i32, i32* %3, align 4
  %34 = sext i32 %33 to i64
  %35 = getelementptr inbounds [200 x i8], [200 x i8]* %13, i64 0, i64 %34
  %36 = load i32, i32* %3, align 4
  %37 = sext i32 %36 to i64
  %38 = getelementptr inbounds [200 x i32], [200 x i32]* %6, i64 0, i64 %37
  %39 = call i32 (i8*, ...) @__isoc99_scanf(i8* getelementptr inbounds ([16 x i8], [16 x i8]* @.str.1, i64 0, i64 0), i8* %23, i32* %26, i32* %29, i8* %32, i8* %35, i32* %38)
  br label %40

40:                                               ; preds = %19
  %41 = load i32, i32* %3, align 4
  %42 = add nsw i32 %41, 1
  store i32 %42, i32* %3, align 4
  br label %15

43:                                               ; preds = %15
  store i32 0, i32* %3, align 4
  br label %44

44:                                               ; preds = %138, %43
  %45 = load i32, i32* %3, align 4
  %46 = load i32, i32* %2, align 4
  %47 = icmp slt i32 %45, %46
  br i1 %47, label %48, label %141

48:                                               ; preds = %44
  %49 = load i32, i32* %3, align 4
  %50 = sext i32 %49 to i64
  %51 = getelementptr inbounds [200 x i32], [200 x i32]* %7, i64 0, i64 %50
  store i32 0, i32* %51, align 4
  %52 = load i32, i32* %3, align 4
  %53 = sext i32 %52 to i64
  %54 = getelementptr inbounds [200 x i32], [200 x i32]* %4, i64 0, i64 %53
  %55 = load i32, i32* %54, align 4
  %56 = icmp sgt i32 %55, 80
  br i1 %56, label %57, label %69

57:                                               ; preds = %48
  %58 = load i32, i32* %3, align 4
  %59 = sext i32 %58 to i64
  %60 = getelementptr inbounds [200 x i32], [200 x i32]* %6, i64 0, i64 %59
  %61 = load i32, i32* %60, align 4
  %62 = icmp sgt i32 %61, 0
  br i1 %62, label %63, label %69

63:                                               ; preds = %57
  %64 = load i32, i32* %3, align 4
  %65 = sext i32 %64 to i64
  %66 = getelementptr inbounds [200 x i32], [200 x i32]* %7, i64 0, i64 %65
  %67 = load i32, i32* %66, align 4
  %68 = add nsw i32 %67, 8000
  store i32 %68, i32* %66, align 4
  br label %69

69:                                               ; preds = %63, %57, %48
  %70 = load i32, i32* %3, align 4
  %71 = sext i32 %70 to i64
  %72 = getelementptr inbounds [200 x i32], [200 x i32]* %4, i64 0, i64 %71
  %73 = load i32, i32* %72, align 4
  %74 = icmp sgt i32 %73, 85
  br i1 %74, label %75, label %87

75:                                               ; preds = %69
  %76 = load i32, i32* %3, align 4
  %77 = sext i32 %76 to i64
  %78 = getelementptr inbounds [200 x i32], [200 x i32]* %5, i64 0, i64 %77
  %79 = load i32, i32* %78, align 4
  %80 = icmp sgt i32 %79, 80
  br i1 %80, label %81, label %87

81:                                               ; preds = %75
  %82 = load i32, i32* %3, align 4
  %83 = sext i32 %82 to i64
  %84 = getelementptr inbounds [200 x i32], [200 x i32]* %7, i64 0, i64 %83
  %85 = load i32, i32* %84, align 4
  %86 = add nsw i32 %85, 4000
  store i32 %86, i32* %84, align 4
  br label %87

87:                                               ; preds = %81, %75, %69
  %88 = load i32, i32* %3, align 4
  %89 = sext i32 %88 to i64
  %90 = getelementptr inbounds [200 x i32], [200 x i32]* %4, i64 0, i64 %89
  %91 = load i32, i32* %90, align 4
  %92 = icmp sgt i32 %91, 90
  br i1 %92, label %93, label %99

93:                                               ; preds = %87
  %94 = load i32, i32* %3, align 4
  %95 = sext i32 %94 to i64
  %96 = getelementptr inbounds [200 x i32], [200 x i32]* %7, i64 0, i64 %95
  %97 = load i32, i32* %96, align 4
  %98 = add nsw i32 %97, 2000
  store i32 %98, i32* %96, align 4
  br label %99

99:                                               ; preds = %93, %87
  %100 = load i32, i32* %3, align 4
  %101 = sext i32 %100 to i64
  %102 = getelementptr inbounds [200 x i32], [200 x i32]* %4, i64 0, i64 %101
  %103 = load i32, i32* %102, align 4
  %104 = icmp sgt i32 %103, 85
  br i1 %104, label %105, label %118

105:                                              ; preds = %99
  %106 = load i32, i32* %3, align 4
  %107 = sext i32 %106 to i64
  %108 = getelementptr inbounds [200 x i8], [200 x i8]* %13, i64 0, i64 %107
  %109 = load i8, i8* %108, align 1
  %110 = sext i8 %109 to i32
  %111 = icmp eq i32 %110, 89
  br i1 %111, label %112, label %118

112:                                              ; preds = %105
  %113 = load i32, i32* %3, align 4
  %114 = sext i32 %113 to i64
  %115 = getelementptr inbounds [200 x i32], [200 x i32]* %7, i64 0, i64 %114
  %116 = load i32, i32* %115, align 4
  %117 = add nsw i32 %116, 1000
  store i32 %117, i32* %115, align 4
  br label %118

118:                                              ; preds = %112, %105, %99
  %119 = load i32, i32* %3, align 4
  %120 = sext i32 %119 to i64
  %121 = getelementptr inbounds [200 x i32], [200 x i32]* %5, i64 0, i64 %120
  %122 = load i32, i32* %121, align 4
  %123 = icmp sgt i32 %122, 80
  br i1 %123, label %124, label %137

124:                                              ; preds = %118
  %125 = load i32, i32* %3, align 4
  %126 = sext i32 %125 to i64
  %127 = getelementptr inbounds [200 x i8], [200 x i8]* %12, i64 0, i64 %126
  %128 = load i8, i8* %127, align 1
  %129 = sext i8 %128 to i32
  %130 = icmp eq i32 %129, 89
  br i1 %130, label %131, label %137

131:                                              ; preds = %124
  %132 = load i32, i32* %3, align 4
  %133 = sext i32 %132 to i64
  %134 = getelementptr inbounds [200 x i32], [200 x i32]* %7, i64 0, i64 %133
  %135 = load i32, i32* %134, align 4
  %136 = add nsw i32 %135, 850
  store i32 %136, i32* %134, align 4
  br label %137

137:                                              ; preds = %131, %124, %118
  br label %138

138:                                              ; preds = %137
  %139 = load i32, i32* %3, align 4
  %140 = add nsw i32 %139, 1
  store i32 %140, i32* %3, align 4
  br label %44

141:                                              ; preds = %44
  store i32 0, i32* %3, align 4
  br label %142

142:                                              ; preds = %153, %141
  %143 = load i32, i32* %3, align 4
  %144 = load i32, i32* %2, align 4
  %145 = icmp slt i32 %143, %144
  br i1 %145, label %146, label %156

146:                                              ; preds = %142
  %147 = load i32, i32* %3, align 4
  %148 = sext i32 %147 to i64
  %149 = getelementptr inbounds [200 x i32], [200 x i32]* %7, i64 0, i64 %148
  %150 = load i32, i32* %149, align 4
  %151 = load i32, i32* %8, align 4
  %152 = add nsw i32 %151, %150
  store i32 %152, i32* %8, align 4
  br label %153

153:                                              ; preds = %146
  %154 = load i32, i32* %3, align 4
  %155 = add nsw i32 %154, 1
  store i32 %155, i32* %3, align 4
  br label %142

156:                                              ; preds = %142
  %157 = getelementptr inbounds [200 x i32], [200 x i32]* %7, i64 0, i64 0
  %158 = load i32, i32* %157, align 16
  store i32 %158, i32* %9, align 4
  store i32 0, i32* %10, align 4
  store i32 1, i32* %3, align 4
  br label %159

159:                                              ; preds = %177, %156
  %160 = load i32, i32* %3, align 4
  %161 = load i32, i32* %2, align 4
  %162 = icmp slt i32 %160, %161
  br i1 %162, label %163, label %180

163:                                              ; preds = %159
  %164 = load i32, i32* %3, align 4
  %165 = sext i32 %164 to i64
  %166 = getelementptr inbounds [200 x i32], [200 x i32]* %7, i64 0, i64 %165
  %167 = load i32, i32* %166, align 4
  %168 = load i32, i32* %9, align 4
  %169 = icmp sgt i32 %167, %168
  br i1 %169, label %170, label %176

170:                                              ; preds = %163
  %171 = load i32, i32* %3, align 4
  %172 = sext i32 %171 to i64
  %173 = getelementptr inbounds [200 x i32], [200 x i32]* %7, i64 0, i64 %172
  %174 = load i32, i32* %173, align 4
  store i32 %174, i32* %9, align 4
  %175 = load i32, i32* %3, align 4
  store i32 %175, i32* %10, align 4
  br label %176

176:                                              ; preds = %170, %163
  br label %177

177:                                              ; preds = %176
  %178 = load i32, i32* %3, align 4
  %179 = add nsw i32 %178, 1
  store i32 %179, i32* %3, align 4
  br label %159

180:                                              ; preds = %159
  %181 = load i32, i32* %10, align 4
  %182 = sext i32 %181 to i64
  %183 = getelementptr inbounds [200 x [40 x i8]], [200 x [40 x i8]]* %11, i64 0, i64 %182
  %184 = getelementptr inbounds [40 x i8], [40 x i8]* %183, i64 0, i64 0
  %185 = load i32, i32* %9, align 4
  %186 = load i32, i32* %8, align 4
  %187 = call i32 (i8*, ...) @printf(i8* getelementptr inbounds ([9 x i8], [9 x i8]* @.str.2, i64 0, i64 0), i8* %184, i32 %185, i32 %186)
  ret i32 0
}